target datalayout = "e-m:e-p270:32:32-p271:32:32-p272:64:64-i64:64-i128:128-f80:128-n8:16:32:64-S128"
target triple = "x86_64-pc-linux-gnu"

; Function Attrs: mustprogress uwtable
define dso_local noundef ptr @_ZN4Luau17typeFunctionAllocEPvS0_mm(ptr noundef %0, ptr noundef %1, i64 noundef %2, i64 noundef %3) #3 {
  %5 = alloca ptr, align 8
  %6 = alloca ptr, align 8
  %7 = alloca ptr, align 8
  %8 = alloca i64, align 8
  %9 = alloca i64, align 8
  %10 = alloca ptr, align 8
  store ptr %0, ptr %6, align 8, !tbaa !22
  store ptr %1, ptr %7, align 8, !tbaa !22
  store i64 %2, ptr %8, align 8, !tbaa !23
  store i64 %3, ptr %9, align 8, !tbaa !23
  %11 = load i64, ptr %9, align 8, !tbaa !23
  %12 = icmp eq i64 %11, 0
  br i1 %12, label %13, label %15

13:                                               ; preds = %4
  %14 = load ptr, ptr %7, align 8, !tbaa !22
  call void @_ZdlPv(ptr noundef %14) #17
  store ptr null, ptr %5, align 8
  br label %37

15:                                               ; preds = %4
  %16 = load i64, ptr %8, align 8, !tbaa !23
  %17 = icmp eq i64 %16, 0
  br i1 %17, label %18, label %21

18:                                               ; preds = %15
  %19 = load i64, ptr %9, align 8, !tbaa !23
  %20 = call noalias noundef nonnull ptr @_Znwm(i64 noundef %19) #18
  store ptr %20, ptr %5, align 8
  br label %37

21:                                               ; preds = %15
  call void @llvm.lifetime.start.p0(i64 8, ptr %10) #17
  %22 = load i64, ptr %9, align 8, !tbaa !23
  %23 = call noalias noundef nonnull ptr @_Znwm(i64 noundef %22) #18
  store ptr %23, ptr %10, align 8, !tbaa !22
  %24 = load ptr, ptr %10, align 8, !tbaa !22
  %25 = load ptr, ptr %7, align 8, !tbaa !22
  %26 = load i64, ptr %9, align 8, !tbaa !23
  %27 = load i64, ptr %8, align 8, !tbaa !23
  %28 = icmp ult i64 %26, %27
  br i1 %28, label %29, label %31

29:                                               ; preds = %21
  %30 = load i64, ptr %9, align 8, !tbaa !23
  br label %33

31:                                               ; preds = %21
  %32 = load i64, ptr %8, align 8, !tbaa !23
  br label %33

33:                                               ; preds = %31, %29
  %34 = phi i64 [ %30, %29 ], [ %32, %31 ]
  call void @llvm.memcpy.p0.p0.i64(ptr align 1 %24, ptr align 1 %25, i64 %34, i1 false)
  %35 = load ptr, ptr %7, align 8, !tbaa !22
  call void @_ZdlPv(ptr noundef %35) #17
  %36 = load ptr, ptr %10, align 8, !tbaa !22
  store ptr %36, ptr %5, align 8
  call void @llvm.lifetime.end.p0(i64 8, ptr %10) #17
  br label %37

37:                                               ; preds = %33, %18, %13
  %38 = load ptr, ptr %5, align 8
  ret ptr %38
}