; Function Attrs: mustprogress uwtable
define dso_local noalias noundef ptr @_ZN4Luau17typeFunctionAllocEPvS0_mm(ptr noundef readnone captures(none) %0, ptr noundef %1, i64 noundef %2, i64 noundef %3) local_unnamed_addr #2 {
  %5 = icmp eq i64 %3, 0
  br i1 %5, label %.sink.split, label %6

6:                                                ; preds = %4
  %7 = icmp eq i64 %2, 0
  %8 = tail call noalias noundef nonnull ptr @_Znwm(i64 noundef %3) #26
  br i1 %7, label %11, label %9

9:                                                ; preds = %6
  %10 = tail call i64 @llvm.umin.i64(i64 %3, i64 %2)
  tail call void @llvm.memcpy.p0.p0.i64(ptr nonnull align 1 %8, ptr align 1 %1, i64 %10, i1 false)
  br label %.sink.split

.sink.split:                                      ; preds = %4, %9
  %.0.ph = phi ptr [ %8, %9 ], [ null, %4 ]
  tail call void @_ZdlPv(ptr noundef %1) #27
  br label %11

11:                                               ; preds = %.sink.split, %6
  %.0 = phi ptr [ %8, %6 ], [ %.0.ph, %.sink.split ]
  ret ptr %.0
}